target datalayout = "e-m:e-p270:32:32-p271:32:32-p272:64:64-i64:64-i128:128-f80:128-n8:16:32:64-S128"
target triple = "x86_64-unknown-linux-gnu"

%struct.Token = type { i32, ptr, i64, x86_fp80, ptr, i32, ptr, ptr, ptr, ptr, i32, i32, i8, i8, ptr, ptr }
%struct.Member = type { ptr, ptr, ptr, ptr, i32, i32, i32, i8, i32, i32 }
%struct.Initializer = type { ptr, ptr, ptr, i8, ptr, ptr, ptr }

@.str.56 = private unnamed_addr constant [2 x i8] c"[\00", align 1
@.str.57 = private unnamed_addr constant [2 x i8] c",\00", align 1
@.str.67 = private unnamed_addr constant [2 x i8] c".\00", align 1
@.str.69 = private unnamed_addr constant [2 x i8] c"}\00", align 1

; Function Attrs: nounwind uwtable
define internal zeroext i1 @is_end(ptr noundef %tok) #0 {
entry:
  %tok.addr = alloca ptr, align 8
  store ptr %tok, ptr %tok.addr, align 8
  %0 = load ptr, ptr %tok.addr, align 8
  %call = call zeroext i1 @equal(ptr noundef %0, ptr noundef @.str.69)
  br i1 %call, label %lor.end, label %lor.rhs

lor.rhs:                                          ; preds = %entry
  %1 = load ptr, ptr %tok.addr, align 8
  %call1 = call zeroext i1 @equal(ptr noundef %1, ptr noundef @.str.57)
  br i1 %call1, label %land.rhs, label %land.end

land.rhs:                                         ; preds = %lor.rhs
  %2 = load ptr, ptr %tok.addr, align 8
  %next = getelementptr inbounds %struct.Token, ptr %2, i32 0, i32 1
  %3 = load ptr, ptr %next, align 8
  %call2 = call zeroext i1 @equal(ptr noundef %3, ptr noundef @.str.69)
  br label %land.end

land.end:                                         ; preds = %land.rhs, %lor.rhs
  %4 = phi i1 [ false, %lor.rhs ], [ %call2, %land.rhs ]
  br label %lor.end

lor.end:                                          ; preds = %land.end, %entry
  %5 = phi i1 [ true, %entry ], [ %4, %land.end ]
  ret i1 %5
}

; Function Attrs: nounwind uwtable
define internal void @struct_initializer2(ptr noundef %rest, ptr noundef %tok, ptr noundef %init, ptr noundef %mem) #0 {
entry:
  %rest.addr = alloca ptr, align 8
  %tok.addr = alloca ptr, align 8
  %init.addr = alloca ptr, align 8
  %mem.addr = alloca ptr, align 8
  %first = alloca i8, align 1
  %start = alloca ptr, align 8
  store ptr %rest, ptr %rest.addr, align 8
  store ptr %tok, ptr %tok.addr, align 8
  store ptr %init, ptr %init.addr, align 8
  store ptr %mem, ptr %mem.addr, align 8
  store i8 1, ptr %first, align 1
  br label %for.cond

for.cond:                                         ; preds = %for.inc, %entry
  %0 = load ptr, ptr %mem.addr, align 8
  %tobool = icmp ne ptr %0, null
  br i1 %tobool, label %land.rhs, label %land.end

land.rhs:                                         ; preds = %for.cond
  %1 = load ptr, ptr %tok.addr, align 8
  %call = call zeroext i1 @is_end(ptr noundef %1)
  %lnot = xor i1 %call, true
  br label %land.end

land.end:                                         ; preds = %land.rhs, %for.cond
  %2 = phi i1 [ false, %for.cond ], [ %lnot, %land.rhs ]
  br i1 %2, label %for.body, label %for.end

for.body:                                         ; preds = %land.end
  %3 = load ptr, ptr %tok.addr, align 8
  store ptr %3, ptr %start, align 8
  %4 = load i8, ptr %first, align 1
  %tobool1 = trunc i8 %4 to i1
  br i1 %tobool1, label %if.end, label %if.then

if.then:                                          ; preds = %for.body
  %5 = load ptr, ptr %tok.addr, align 8
  %call2 = call ptr @skip(ptr noundef %5, ptr noundef @.str.57)
  store ptr %call2, ptr %tok.addr, align 8
  br label %if.end

if.end:                                           ; preds = %if.then, %for.body
  store i8 0, ptr %first, align 1
  %6 = load ptr, ptr %tok.addr, align 8
  %call3 = call zeroext i1 @equal(ptr noundef %6, ptr noundef @.str.56)
  br i1 %call3, label %if.then5, label %lor.lhs.false

lor.lhs.false:                                    ; preds = %if.end
  %7 = load ptr, ptr %tok.addr, align 8
  %call4 = call zeroext i1 @equal(ptr noundef %7, ptr noundef @.str.67)
  br i1 %call4, label %if.then5, label %if.end6

if.then5:                                         ; preds = %lor.lhs.false, %if.end
  %8 = load ptr, ptr %start, align 8
  %9 = load ptr, ptr %rest.addr, align 8
  store ptr %8, ptr %9, align 8
  br label %return

if.end6:                                          ; preds = %lor.lhs.false
  %10 = load ptr, ptr %tok.addr, align 8
  %11 = load ptr, ptr %init.addr, align 8
  %children = getelementptr inbounds %struct.Initializer, ptr %11, i32 0, i32 5
  %12 = load ptr, ptr %children, align 8
  %13 = load ptr, ptr %mem.addr, align 8
  %idx = getelementptr inbounds %struct.Member, ptr %13, i32 0, i32 4
  %14 = load i32, ptr %idx, align 8
  %idxprom = sext i32 %14 to i64
  %arrayidx = getelementptr inbounds ptr, ptr %12, i64 %idxprom
  %15 = load ptr, ptr %arrayidx, align 8
  call void @initializer2(ptr noundef %tok.addr, ptr noundef %10, ptr noundef %15)
  br label %for.inc

for.inc:                                          ; preds = %if.end6
  %16 = load ptr, ptr %mem.addr, align 8
  %next = getelementptr inbounds %struct.Member, ptr %16, i32 0, i32 0
  %17 = load ptr, ptr %next, align 8
  store ptr %17, ptr %mem.addr, align 8
  br label %for.cond, !llvm.loop !42

for.end:                                          ; preds = %land.end
  %18 = load ptr, ptr %tok.addr, align 8
  %19 = load ptr, ptr %rest.addr, align 8
  store ptr %18, ptr %19, align 8
  br label %return

return:                                           ; preds = %for.end, %if.then5
  ret void
}