; Function Attrs: nounwind uwtable
define internal fastcc void @struct_initializer2(ptr nocapture noundef writeonly %rest, ptr noundef %tok, ptr nocapture noundef readonly %init, ptr noundef readonly %mem) unnamed_addr #0 {
entry:
  %tok.addr = alloca ptr, align 8
  store ptr %tok, ptr %tok.addr, align 8
  %tobool.not5 = icmp eq ptr %mem, null
  br i1 %tobool.not5, label %return, label %land.rhs.lr.ph

land.rhs.lr.ph:                                   ; preds = %entry
  %children = getelementptr inbounds %struct.Initializer, ptr %init, i64 0, i32 5
  br label %land.rhs

land.rhs:                                         ; preds = %land.rhs.lr.ph, %if.end6
  %mem.addr.07 = phi ptr [ %mem, %land.rhs.lr.ph ], [ %9, %if.end6 ]
  %first.06 = phi i1 [ true, %land.rhs.lr.ph ], [ false, %if.end6 ]
  %0 = load ptr, ptr %tok.addr, align 8
  %call.i = call zeroext i1 @equal(ptr noundef %0, ptr noundef nonnull @.str.69) #13
  br i1 %call.i, label %for.end.loopexit, label %lor.rhs.i

lor.rhs.i:                                        ; preds = %land.rhs
  %call1.i = call zeroext i1 @equal(ptr noundef %0, ptr noundef nonnull @.str.57) #13
  br i1 %call1.i, label %is_end.exit, label %for.body

is_end.exit:                                      ; preds = %lor.rhs.i
  %next.i = getelementptr inbounds %struct.Token, ptr %0, i64 0, i32 1
  %1 = load ptr, ptr %next.i, align 8
  %call2.i = call zeroext i1 @equal(ptr noundef %1, ptr noundef nonnull @.str.69) #13
  br i1 %call2.i, label %for.end.loopexit, label %for.body

for.body:                                         ; preds = %lor.rhs.i, %is_end.exit
  %2 = load ptr, ptr %tok.addr, align 8
  br i1 %first.06, label %if.end, label %if.then

if.then:                                          ; preds = %for.body
  %call2 = call ptr @skip(ptr noundef %2, ptr noundef nonnull @.str.57) #13
  store ptr %call2, ptr %tok.addr, align 8
  br label %if.end

if.end:                                           ; preds = %if.then, %for.body
  %3 = phi ptr [ %call2, %if.then ], [ %2, %for.body ]
  %call3 = call zeroext i1 @equal(ptr noundef %3, ptr noundef nonnull @.str.56) #13
  br i1 %call3, label %return, label %lor.lhs.false

lor.lhs.false:                                    ; preds = %if.end
  %4 = load ptr, ptr %tok.addr, align 8
  %call4 = call zeroext i1 @equal(ptr noundef %4, ptr noundef nonnull @.str.67) #13
  br i1 %call4, label %return, label %if.end6

if.end6:                                          ; preds = %lor.lhs.false
  %5 = load ptr, ptr %tok.addr, align 8
  %6 = load ptr, ptr %children, align 8
  %idx = getelementptr inbounds %struct.Member, ptr %mem.addr.07, i64 0, i32 4
  %7 = load i32, ptr %idx, align 8
  %idxprom = sext i32 %7 to i64
  %arrayidx = getelementptr inbounds ptr, ptr %6, i64 %idxprom
  %8 = load ptr, ptr %arrayidx, align 8
  call fastcc void @initializer2(ptr noundef nonnull %tok.addr, ptr noundef %5, ptr noundef %8)
  %9 = load ptr, ptr %mem.addr.07, align 8
  %tobool.not = icmp eq ptr %9, null
  br i1 %tobool.not, label %for.end.loopexit, label %land.rhs, !llvm.loop !46

for.end.loopexit:                                 ; preds = %land.rhs, %if.end6, %is_end.exit
  %.pre = load ptr, ptr %tok.addr, align 8
  br label %return

return:                                           ; preds = %if.end, %lor.lhs.false, %entry, %for.end.loopexit
  %storemerge = phi ptr [ %.pre, %for.end.loopexit ], [ %tok, %entry ], [ %2, %lor.lhs.false ], [ %2, %if.end ]
  store ptr %storemerge, ptr %rest, align 8
  ret void
}